target datalayout = "e-m:e-p270:32:32-p271:32:32-p272:64:64-i64:64-i128:128-f80:128-n8:16:32:64-S128"
target triple = "x86_64-pc-linux-gnu"

%struct.ge25519_p3 = type { [5 x i64], [5 x i64], [5 x i64], [5 x i64] }
%struct.ge25519_p1p1 = type { [5 x i64], [5 x i64], [5 x i64], [5 x i64] }

; Function Attrs: nounwind ssp uwtable
define hidden void @_sodium_ge25519_p1p1_to_p3(ptr noundef %0, ptr noundef %1) #0 {
  %3 = alloca ptr, align 8
  %4 = alloca ptr, align 8
  store ptr %0, ptr %3, align 8
  store ptr %1, ptr %4, align 8
  %5 = load ptr, ptr %3, align 8
  %6 = getelementptr inbounds nuw %struct.ge25519_p3, ptr %5, i32 0, i32 0
  %7 = getelementptr inbounds [5 x i64], ptr %6, i64 0, i64 0
  %8 = load ptr, ptr %4, align 8
  %9 = getelementptr inbounds nuw %struct.ge25519_p1p1, ptr %8, i32 0, i32 0
  %10 = getelementptr inbounds [5 x i64], ptr %9, i64 0, i64 0
  %11 = load ptr, ptr %4, align 8
  %12 = getelementptr inbounds nuw %struct.ge25519_p1p1, ptr %11, i32 0, i32 3
  %13 = getelementptr inbounds [5 x i64], ptr %12, i64 0, i64 0
  call void @fe25519_mul(ptr noundef %7, ptr noundef %10, ptr noundef %13)
  %14 = load ptr, ptr %3, align 8
  %15 = getelementptr inbounds nuw %struct.ge25519_p3, ptr %14, i32 0, i32 1
  %16 = getelementptr inbounds [5 x i64], ptr %15, i64 0, i64 0
  %17 = load ptr, ptr %4, align 8
  %18 = getelementptr inbounds nuw %struct.ge25519_p1p1, ptr %17, i32 0, i32 1
  %19 = getelementptr inbounds [5 x i64], ptr %18, i64 0, i64 0
  %20 = load ptr, ptr %4, align 8
  %21 = getelementptr inbounds nuw %struct.ge25519_p1p1, ptr %20, i32 0, i32 2
  %22 = getelementptr inbounds [5 x i64], ptr %21, i64 0, i64 0
  call void @fe25519_mul(ptr noundef %16, ptr noundef %19, ptr noundef %22)
  %23 = load ptr, ptr %3, align 8
  %24 = getelementptr inbounds nuw %struct.ge25519_p3, ptr %23, i32 0, i32 2
  %25 = getelementptr inbounds [5 x i64], ptr %24, i64 0, i64 0
  %26 = load ptr, ptr %4, align 8
  %27 = getelementptr inbounds nuw %struct.ge25519_p1p1, ptr %26, i32 0, i32 2
  %28 = getelementptr inbounds [5 x i64], ptr %27, i64 0, i64 0
  %29 = load ptr, ptr %4, align 8
  %30 = getelementptr inbounds nuw %struct.ge25519_p1p1, ptr %29, i32 0, i32 3
  %31 = getelementptr inbounds [5 x i64], ptr %30, i64 0, i64 0
  call void @fe25519_mul(ptr noundef %25, ptr noundef %28, ptr noundef %31)
  %32 = load ptr, ptr %3, align 8
  %33 = getelementptr inbounds nuw %struct.ge25519_p3, ptr %32, i32 0, i32 3
  %34 = getelementptr inbounds [5 x i64], ptr %33, i64 0, i64 0
  %35 = load ptr, ptr %4, align 8
  %36 = getelementptr inbounds nuw %struct.ge25519_p1p1, ptr %35, i32 0, i32 0
  %37 = getelementptr inbounds [5 x i64], ptr %36, i64 0, i64 0
  %38 = load ptr, ptr %4, align 8
  %39 = getelementptr inbounds nuw %struct.ge25519_p1p1, ptr %38, i32 0, i32 1
  %40 = getelementptr inbounds [5 x i64], ptr %39, i64 0, i64 0
  call void @fe25519_mul(ptr noundef %34, ptr noundef %37, ptr noundef %40)
  ret void
}