; Function Attrs: mustprogress nofree norecurse nosync nounwind ssp willreturn memory(argmem: readwrite) uwtable
define hidden void @_sodium_ge25519_p1p1_to_p3(ptr noundef writeonly captures(none) initializes((0, 160)) %0, ptr noundef readonly captures(none) %1) local_unnamed_addr #0 {
  %3 = getelementptr inbounds nuw i8, ptr %1, i64 120
  tail call fastcc void @fe25519_mul(ptr noundef %0, ptr noundef %1, ptr noundef nonnull %3)
  %4 = getelementptr inbounds nuw i8, ptr %0, i64 40
  %5 = getelementptr inbounds nuw i8, ptr %1, i64 40
  %6 = getelementptr inbounds nuw i8, ptr %1, i64 80
  tail call fastcc void @fe25519_mul(ptr noundef nonnull %4, ptr noundef nonnull %5, ptr noundef nonnull %6)
  %7 = getelementptr inbounds nuw i8, ptr %0, i64 80
  tail call fastcc void @fe25519_mul(ptr noundef nonnull %7, ptr noundef nonnull %6, ptr noundef nonnull %3)
  %8 = getelementptr inbounds nuw i8, ptr %0, i64 120
  tail call fastcc void @fe25519_mul(ptr noundef nonnull %8, ptr noundef %1, ptr noundef nonnull %5)
  ret void
}